target datalayout = "e-m:e-p270:32:32-p271:32:32-p272:64:64-i64:64-i128:128-f80:128-n8:16:32:64-S128"
target triple = "x86_64-unknown-linux-gnu"

%"class.std::__shared_count" = type { ptr }
%"class.std::shared_ptr.76" = type { %"class.std::__shared_ptr.77" }
%"class.std::__shared_ptr.77" = type { ptr, %"class.std::__shared_count" }
%"class.__gnu_cxx::__normal_iterator.149" = type { ptr }
%"class.facebook::velox::RowType" = type { %"class.facebook::velox::TypeBase.base", %"class.std::vector.129", %"class.std::vector.134", %"class.std::vector.139", %"class.folly::F14FastMap" }
%"class.facebook::velox::TypeBase.base" = type { %"class.facebook::velox::Type.base" }
%"class.facebook::velox::Type.base" = type <{ %"class.facebook::velox::Tree", %"class.facebook::velox::ISerializable", i8 }>
%"class.facebook::velox::Tree" = type { ptr }
%"class.facebook::velox::ISerializable" = type { ptr }
%"class.std::vector.129" = type { %"struct.std::_Vector_base.130" }
%"struct.std::_Vector_base.130" = type { %"struct.std::_Vector_base<std::__cxx11::basic_string<char>, std::allocator<std::__cxx11::basic_string<char>>>::_Vector_impl" }
%"struct.std::_Vector_base<std::__cxx11::basic_string<char>, std::allocator<std::__cxx11::basic_string<char>>>::_Vector_impl" = type { %"struct.std::_Vector_base<std::__cxx11::basic_string<char>, std::allocator<std::__cxx11::basic_string<char>>>::_Vector_impl_data" }
%"struct.std::_Vector_base<std::__cxx11::basic_string<char>, std::allocator<std::__cxx11::basic_string<char>>>::_Vector_impl_data" = type { ptr, ptr, ptr }
%"class.std::vector.134" = type { %"struct.std::_Vector_base.135" }
%"struct.std::_Vector_base.135" = type { %"struct.std::_Vector_base<std::shared_ptr<const facebook::velox::Type>, std::allocator<std::shared_ptr<const facebook::velox::Type>>>::_Vector_impl" }
%"struct.std::_Vector_base<std::shared_ptr<const facebook::velox::Type>, std::allocator<std::shared_ptr<const facebook::velox::Type>>>::_Vector_impl" = type { %"struct.std::_Vector_base<std::shared_ptr<const facebook::velox::Type>, std::allocator<std::shared_ptr<const facebook::velox::Type>>>::_Vector_impl_data" }
%"struct.std::_Vector_base<std::shared_ptr<const facebook::velox::Type>, std::allocator<std::shared_ptr<const facebook::velox::Type>>>::_Vector_impl_data" = type { ptr, ptr, ptr }
%"class.std::vector.139" = type { %"struct.std::_Vector_base.140" }
%"struct.std::_Vector_base.140" = type { %"struct.std::_Vector_base<facebook::velox::TypeParameter, std::allocator<facebook::velox::TypeParameter>>::_Vector_impl" }
%"struct.std::_Vector_base<facebook::velox::TypeParameter, std::allocator<facebook::velox::TypeParameter>>::_Vector_impl" = type { %"struct.std::_Vector_base<facebook::velox::TypeParameter, std::allocator<facebook::velox::TypeParameter>>::_Vector_impl_data" }
%"struct.std::_Vector_base<facebook::velox::TypeParameter, std::allocator<facebook::velox::TypeParameter>>::_Vector_impl_data" = type { ptr, ptr, ptr }
%"class.folly::F14FastMap" = type { %"class.folly::f14::detail::F14VectorMapImpl" }
%"class.folly::f14::detail::F14VectorMapImpl" = type { %"class.folly::f14::detail::F14BasicMap" }
%"class.folly::f14::detail::F14BasicMap" = type { %"class.folly::f14::detail::F14Table" }
%"class.folly::f14::detail::F14Table" = type { %"class.folly::f14::detail::VectorContainerPolicy", ptr, i32, %"struct.folly::f14::detail::SizeAndPackedBegin" }
%"class.folly::f14::detail::VectorContainerPolicy" = type { ptr }
%"struct.folly::f14::detail::SizeAndPackedBegin" = type { i32 }
%"class.facebook::velox::Type" = type <{ %"class.facebook::velox::Tree", %"class.facebook::velox::ISerializable", i8, [7 x i8] }>

@_ZTIN8facebook5velox7RowTypeE = external constant ptr

; Function Attrs: mustprogress nounwind uwtable
define linkonce_odr noundef ptr @_ZNKSt12__shared_ptrIKN8facebook5velox4TypeELN9__gnu_cxx12_Lock_policyE2EE3getEv(ptr noundef nonnull align 8 dereferenceable(16) %this) #2 comdat align 2 {
entry:
  %this.addr = alloca ptr, align 8
  store ptr %this, ptr %this.addr, align 8
  %this1 = load ptr, ptr %this.addr, align 8
  %_M_ptr = getelementptr inbounds %"class.std::__shared_ptr.77", ptr %this1, i32 0, i32 0
  %0 = load ptr, ptr %_M_ptr, align 8
  ret ptr %0
}

; Function Attrs: mustprogress nounwind uwtable
define linkonce_odr noundef nonnull align 8 dereferenceable(8) ptr @_ZNK9__gnu_cxx17__normal_iteratorIPKSt10shared_ptrIKN8facebook5velox4TypeEESt6vectorIS6_SaIS6_EEE4baseEv(ptr noundef nonnull align 8 dereferenceable(8) %this) #2 comdat align 2 {
entry:
  %this.addr = alloca ptr, align 8
  store ptr %this, ptr %this.addr, align 8
  %this1 = load ptr, ptr %this.addr, align 8
  %_M_current = getelementptr inbounds %"class.__gnu_cxx::__normal_iterator.149", ptr %this1, i32 0, i32 0
  ret ptr %_M_current
}

; Function Attrs: mustprogress nounwind uwtable
define linkonce_odr void @_ZN9__gnu_cxx17__normal_iteratorIPKSt10shared_ptrIKN8facebook5velox4TypeEESt6vectorIS6_SaIS6_EEEC2ERKS8_(ptr noundef nonnull align 8 dereferenceable(8) %this, ptr noundef nonnull align 8 dereferenceable(8) %__i) unnamed_addr #2 comdat align 2 {
entry:
  %this.addr = alloca ptr, align 8
  %__i.addr = alloca ptr, align 8
  store ptr %this, ptr %this.addr, align 8
  store ptr %__i, ptr %__i.addr, align 8
  %this1 = load ptr, ptr %this.addr, align 8
  %_M_current = getelementptr inbounds %"class.__gnu_cxx::__normal_iterator.149", ptr %this1, i32 0, i32 0
  %0 = load ptr, ptr %__i.addr, align 8
  %1 = load ptr, ptr %0, align 8
  store ptr %1, ptr %_M_current, align 8
  ret void
}

; Function Attrs: mustprogress uwtable
define linkonce_odr noundef nonnull align 8 dereferenceable(120) ptr @_ZNK8facebook5velox4Type2asILNS0_8TypeKindE32EEERKNS0_10TypeTraitsIXT_EE8ImplTypeEv(ptr noundef nonnull align 8 dereferenceable(17) %this) #0 comdat align 2 {
entry:
  %this.addr = alloca ptr, align 8
  store ptr %this, ptr %this.addr, align 8
  %this1 = load ptr, ptr %this.addr, align 8
  %0 = call ptr @__dynamic_cast(ptr %this1, ptr @_ZTIN8facebook5velox4TypeE, ptr @_ZTIN8facebook5velox7RowTypeE, i64 0) #14
  %1 = icmp eq ptr %0, null
  br i1 %1, label %dynamic_cast.bad_cast, label %dynamic_cast.end

dynamic_cast.bad_cast:                            ; preds = %entry
  call void @__cxa_bad_cast() #17
  unreachable

dynamic_cast.end:                                 ; preds = %entry
  ret ptr %0
}

; Function Attrs: mustprogress nounwind uwtable
define linkonce_odr noundef signext i8 @_ZNK8facebook5velox4Type4kindEv(ptr noundef nonnull align 8 dereferenceable(17) %this) #2 comdat align 2 {
entry:
  %this.addr = alloca ptr, align 8
  store ptr %this, ptr %this.addr, align 8
  %this1 = load ptr, ptr %this.addr, align 8
  %kind_ = getelementptr inbounds %"class.facebook::velox::Type", ptr %this1, i32 0, i32 2
  %0 = load i8, ptr %kind_, align 8
  ret i8 %0
}

; Function Attrs: mustprogress nounwind uwtable
define linkonce_odr noundef ptr @_ZNKSt19__shared_ptr_accessIKN8facebook5velox4TypeELN9__gnu_cxx12_Lock_policyE2ELb0ELb0EE6_M_getEv(ptr noundef nonnull align 1 dereferenceable(1) %this) #2 comdat align 2 {
entry:
  %this.addr = alloca ptr, align 8
  store ptr %this, ptr %this.addr, align 8
  %this1 = load ptr, ptr %this.addr, align 8
  %call = call noundef ptr @_ZNKSt12__shared_ptrIKN8facebook5velox4TypeELN9__gnu_cxx12_Lock_policyE2EE3getEv(ptr noundef nonnull align 8 dereferenceable(16) %this1) #14
  ret ptr %call
}

; Function Attrs: mustprogress nounwind uwtable
define linkonce_odr noundef nonnull align 8 dereferenceable(8) ptr @_ZN9__gnu_cxx17__normal_iteratorIPKSt10shared_ptrIKN8facebook5velox4TypeEESt6vectorIS6_SaIS6_EEEppEv(ptr noundef nonnull align 8 dereferenceable(8) %this) #2 comdat align 2 {
entry:
  %this.addr = alloca ptr, align 8
  store ptr %this, ptr %this.addr, align 8
  %this1 = load ptr, ptr %this.addr, align 8
  %_M_current = getelementptr inbounds %"class.__gnu_cxx::__normal_iterator.149", ptr %this1, i32 0, i32 0
  %0 = load ptr, ptr %_M_current, align 8
  %incdec.ptr = getelementptr inbounds %"class.std::shared_ptr.76", ptr %0, i32 1
  store ptr %incdec.ptr, ptr %_M_current, align 8
  ret ptr %this1
}

; Function Attrs: mustprogress nounwind uwtable
define linkonce_odr noundef nonnull align 8 dereferenceable(16) ptr @_ZNK9__gnu_cxx17__normal_iteratorIPKSt10shared_ptrIKN8facebook5velox4TypeEESt6vectorIS6_SaIS6_EEEdeEv(ptr noundef nonnull align 8 dereferenceable(8) %this) #2 comdat align 2 {
entry:
  %this.addr = alloca ptr, align 8
  store ptr %this, ptr %this.addr, align 8
  %this1 = load ptr, ptr %this.addr, align 8
  %_M_current = getelementptr inbounds %"class.__gnu_cxx::__normal_iterator.149", ptr %this1, i32 0, i32 0
  %0 = load ptr, ptr %_M_current, align 8
  ret ptr %0
}

; Function Attrs: mustprogress nounwind uwtable
define linkonce_odr noundef zeroext i1 @_ZN9__gnu_cxxneIPKSt10shared_ptrIKN8facebook5velox4TypeEESt6vectorIS6_SaIS6_EEEEbRKNS_17__normal_iteratorIT_T0_EESH_(ptr noundef nonnull align 8 dereferenceable(8) %__lhs, ptr noundef nonnull align 8 dereferenceable(8) %__rhs) #2 comdat {
entry:
  %__lhs.addr = alloca ptr, align 8
  %__rhs.addr = alloca ptr, align 8
  store ptr %__lhs, ptr %__lhs.addr, align 8
  store ptr %__rhs, ptr %__rhs.addr, align 8
  %0 = load ptr, ptr %__lhs.addr, align 8
  %call = call noundef nonnull align 8 dereferenceable(8) ptr @_ZNK9__gnu_cxx17__normal_iteratorIPKSt10shared_ptrIKN8facebook5velox4TypeEESt6vectorIS6_SaIS6_EEE4baseEv(ptr noundef nonnull align 8 dereferenceable(8) %0) #14
  %1 = load ptr, ptr %call, align 8
  %2 = load ptr, ptr %__rhs.addr, align 8
  %call1 = call noundef nonnull align 8 dereferenceable(8) ptr @_ZNK9__gnu_cxx17__normal_iteratorIPKSt10shared_ptrIKN8facebook5velox4TypeEESt6vectorIS6_SaIS6_EEE4baseEv(ptr noundef nonnull align 8 dereferenceable(8) %2) #14
  %3 = load ptr, ptr %call1, align 8
  %cmp = icmp ne ptr %1, %3
  ret i1 %cmp
}

; Function Attrs: mustprogress nounwind uwtable
define linkonce_odr ptr @_ZNKSt6vectorISt10shared_ptrIKN8facebook5velox4TypeEESaIS5_EE3endEv(ptr noundef nonnull align 8 dereferenceable(24) %this) #2 comdat align 2 {
entry:
  %retval = alloca %"class.__gnu_cxx::__normal_iterator.149", align 8
  %this.addr = alloca ptr, align 8
  store ptr %this, ptr %this.addr, align 8
  %this1 = load ptr, ptr %this.addr, align 8
  %_M_impl = getelementptr inbounds %"struct.std::_Vector_base.135", ptr %this1, i32 0, i32 0
  %_M_finish = getelementptr inbounds %"struct.std::_Vector_base<std::shared_ptr<const facebook::velox::Type>, std::allocator<std::shared_ptr<const facebook::velox::Type>>>::_Vector_impl_data", ptr %_M_impl, i32 0, i32 1
  call void @_ZN9__gnu_cxx17__normal_iteratorIPKSt10shared_ptrIKN8facebook5velox4TypeEESt6vectorIS6_SaIS6_EEEC2ERKS8_(ptr noundef nonnull align 8 dereferenceable(8) %retval, ptr noundef nonnull align 8 dereferenceable(8) %_M_finish) #14
  %coerce.dive = getelementptr inbounds %"class.__gnu_cxx::__normal_iterator.149", ptr %retval, i32 0, i32 0
  %0 = load ptr, ptr %coerce.dive, align 8
  ret ptr %0
}

; Function Attrs: mustprogress nounwind uwtable
define linkonce_odr ptr @_ZNKSt6vectorISt10shared_ptrIKN8facebook5velox4TypeEESaIS5_EE5beginEv(ptr noundef nonnull align 8 dereferenceable(24) %this) #2 comdat align 2 {
entry:
  %retval = alloca %"class.__gnu_cxx::__normal_iterator.149", align 8
  %this.addr = alloca ptr, align 8
  store ptr %this, ptr %this.addr, align 8
  %this1 = load ptr, ptr %this.addr, align 8
  %_M_impl = getelementptr inbounds %"struct.std::_Vector_base.135", ptr %this1, i32 0, i32 0
  %_M_start = getelementptr inbounds %"struct.std::_Vector_base<std::shared_ptr<const facebook::velox::Type>, std::allocator<std::shared_ptr<const facebook::velox::Type>>>::_Vector_impl_data", ptr %_M_impl, i32 0, i32 0
  call void @_ZN9__gnu_cxx17__normal_iteratorIPKSt10shared_ptrIKN8facebook5velox4TypeEESt6vectorIS6_SaIS6_EEEC2ERKS8_(ptr noundef nonnull align 8 dereferenceable(8) %retval, ptr noundef nonnull align 8 dereferenceable(8) %_M_start) #14
  %coerce.dive = getelementptr inbounds %"class.__gnu_cxx::__normal_iterator.149", ptr %retval, i32 0, i32 0
  %0 = load ptr, ptr %coerce.dive, align 8
  ret ptr %0
}

; Function Attrs: mustprogress nounwind uwtable
define linkonce_odr noundef nonnull align 8 dereferenceable(24) ptr @_ZNK8facebook5velox7RowType8childrenEv(ptr noundef nonnull align 8 dereferenceable(120) %this) #2 comdat align 2 {
entry:
  %this.addr = alloca ptr, align 8
  store ptr %this, ptr %this.addr, align 8
  %this1 = load ptr, ptr %this.addr, align 8
  %children_ = getelementptr inbounds %"class.facebook::velox::RowType", ptr %this1, i32 0, i32 2
  ret ptr %children_
}

; Function Attrs: mustprogress uwtable
define linkonce_odr noundef nonnull align 8 dereferenceable(120) ptr @_ZNK8facebook5velox4Type5asRowEv(ptr noundef nonnull align 8 dereferenceable(17) %this) #0 comdat align 2 {
entry:
  %this.addr = alloca ptr, align 8
  store ptr %this, ptr %this.addr, align 8
  %this1 = load ptr, ptr %this.addr, align 8
  %call = call noundef nonnull align 8 dereferenceable(120) ptr @_ZNK8facebook5velox4Type2asILNS0_8TypeKindE32EEERKNS0_10TypeTraitsIXT_EE8ImplTypeEv(ptr noundef nonnull align 8 dereferenceable(17) %this1)
  ret ptr %call
}

; Function Attrs: mustprogress uwtable
define linkonce_odr noundef zeroext i1 @_ZNK8facebook5velox4Type5isRowEv(ptr noundef nonnull align 8 dereferenceable(17) %this) #0 comdat align 2 {
entry:
  %this.addr = alloca ptr, align 8
  store ptr %this, ptr %this.addr, align 8
  %this1 = load ptr, ptr %this.addr, align 8
  %call = call noundef signext i8 @_ZNK8facebook5velox4Type4kindEv(ptr noundef nonnull align 8 dereferenceable(17) %this1)
  %cmp = icmp eq i8 %call, 32
  ret i1 %cmp
}

; Function Attrs: mustprogress nounwind uwtable
define linkonce_odr noundef ptr @_ZNKSt19__shared_ptr_accessIKN8facebook5velox4TypeELN9__gnu_cxx12_Lock_policyE2ELb0ELb0EEptEv(ptr noundef nonnull align 1 dereferenceable(1) %this) #2 comdat align 2 {
entry:
  %this.addr = alloca ptr, align 8
  store ptr %this, ptr %this.addr, align 8
  %this1 = load ptr, ptr %this.addr, align 8
  %call = call noundef ptr @_ZNKSt19__shared_ptr_accessIKN8facebook5velox4TypeELN9__gnu_cxx12_Lock_policyE2ELb0ELb0EE6_M_getEv(ptr noundef nonnull align 1 dereferenceable(1) %this1) #14
  ret ptr %call
}

; Function Attrs: mustprogress uwtable
define internal noundef zeroext i1 @_ZN8facebook5velox9functions12_GLOBAL__N_116ArrayConstructor16shouldCopyRangesERKSt10shared_ptrIKNS0_4TypeEE(ptr noundef nonnull align 8 dereferenceable(16) %type) #0 align 2 {
entry:
  %retval = alloca i1, align 1
  %type.addr = alloca ptr, align 8
  %rowType = alloca ptr, align 8
  %__range3 = alloca ptr, align 8
  %__begin3 = alloca %"class.__gnu_cxx::__normal_iterator.149", align 8
  %__end3 = alloca %"class.__gnu_cxx::__normal_iterator.149", align 8
  %child = alloca ptr, align 8
  store ptr %type, ptr %type.addr, align 8
  %0 = load ptr, ptr %type.addr, align 8
  %call = call noundef ptr @_ZNKSt19__shared_ptr_accessIKN8facebook5velox4TypeELN9__gnu_cxx12_Lock_policyE2ELb0ELb0EEptEv(ptr noundef nonnull align 1 dereferenceable(1) %0) #14
  %vtable = load ptr, ptr %call, align 8
  %vfn = getelementptr inbounds ptr, ptr %vtable, i64 4
  %1 = load ptr, ptr %vfn, align 8
  %call1 = call noundef zeroext i1 %1(ptr noundef nonnull align 8 dereferenceable(17) %call)
  br i1 %call1, label %if.then, label %if.end

if.then:                                          ; preds = %entry
  store i1 false, ptr %retval, align 1
  br label %return

if.end:                                           ; preds = %entry
  %2 = load ptr, ptr %type.addr, align 8
  %call2 = call noundef ptr @_ZNKSt19__shared_ptr_accessIKN8facebook5velox4TypeELN9__gnu_cxx12_Lock_policyE2ELb0ELb0EEptEv(ptr noundef nonnull align 1 dereferenceable(1) %2) #14
  %call3 = call noundef zeroext i1 @_ZNK8facebook5velox4Type5isRowEv(ptr noundef nonnull align 8 dereferenceable(17) %call2)
  br i1 %call3, label %if.end5, label %if.then4

if.then4:                                         ; preds = %if.end
  store i1 true, ptr %retval, align 1
  br label %return

if.end5:                                          ; preds = %if.end
  %3 = load ptr, ptr %type.addr, align 8
  %call6 = call noundef ptr @_ZNKSt19__shared_ptr_accessIKN8facebook5velox4TypeELN9__gnu_cxx12_Lock_policyE2ELb0ELb0EEptEv(ptr noundef nonnull align 1 dereferenceable(1) %3) #14
  %call7 = call noundef nonnull align 8 dereferenceable(120) ptr @_ZNK8facebook5velox4Type5asRowEv(ptr noundef nonnull align 8 dereferenceable(17) %call6)
  store ptr %call7, ptr %rowType, align 8
  %4 = load ptr, ptr %rowType, align 8
  %call8 = call noundef nonnull align 8 dereferenceable(24) ptr @_ZNK8facebook5velox7RowType8childrenEv(ptr noundef nonnull align 8 dereferenceable(120) %4)
  store ptr %call8, ptr %__range3, align 8
  %5 = load ptr, ptr %__range3, align 8
  %call9 = call ptr @_ZNKSt6vectorISt10shared_ptrIKN8facebook5velox4TypeEESaIS5_EE5beginEv(ptr noundef nonnull align 8 dereferenceable(24) %5) #14
  %coerce.dive = getelementptr inbounds %"class.__gnu_cxx::__normal_iterator.149", ptr %__begin3, i32 0, i32 0
  store ptr %call9, ptr %coerce.dive, align 8
  %6 = load ptr, ptr %__range3, align 8
  %call10 = call ptr @_ZNKSt6vectorISt10shared_ptrIKN8facebook5velox4TypeEESaIS5_EE3endEv(ptr noundef nonnull align 8 dereferenceable(24) %6) #14
  %coerce.dive11 = getelementptr inbounds %"class.__gnu_cxx::__normal_iterator.149", ptr %__end3, i32 0, i32 0
  store ptr %call10, ptr %coerce.dive11, align 8
  br label %for.cond

for.cond:                                         ; preds = %for.inc, %if.end5
  %call12 = call noundef zeroext i1 @_ZN9__gnu_cxxneIPKSt10shared_ptrIKN8facebook5velox4TypeEESt6vectorIS6_SaIS6_EEEEbRKNS_17__normal_iteratorIT_T0_EESH_(ptr noundef nonnull align 8 dereferenceable(8) %__begin3, ptr noundef nonnull align 8 dereferenceable(8) %__end3) #14
  br i1 %call12, label %for.body, label %for.end

for.body:                                         ; preds = %for.cond
  %call13 = call noundef nonnull align 8 dereferenceable(16) ptr @_ZNK9__gnu_cxx17__normal_iteratorIPKSt10shared_ptrIKN8facebook5velox4TypeEESt6vectorIS6_SaIS6_EEEdeEv(ptr noundef nonnull align 8 dereferenceable(8) %__begin3) #14
  store ptr %call13, ptr %child, align 8
  %7 = load ptr, ptr %child, align 8
  %call14 = call noundef zeroext i1 @_ZN8facebook5velox9functions12_GLOBAL__N_116ArrayConstructor16shouldCopyRangesERKSt10shared_ptrIKNS0_4TypeEE(ptr noundef nonnull align 8 dereferenceable(16) %7)
  br i1 %call14, label %if.then15, label %if.end16

if.then15:                                        ; preds = %for.body
  store i1 true, ptr %retval, align 1
  br label %return

if.end16:                                         ; preds = %for.body
  br label %for.inc

for.inc:                                          ; preds = %if.end16
  %call17 = call noundef nonnull align 8 dereferenceable(8) ptr @_ZN9__gnu_cxx17__normal_iteratorIPKSt10shared_ptrIKN8facebook5velox4TypeEESt6vectorIS6_SaIS6_EEEppEv(ptr noundef nonnull align 8 dereferenceable(8) %__begin3) #14
  br label %for.cond

for.end:                                          ; preds = %for.cond
  store i1 false, ptr %retval, align 1
  br label %return

return:                                           ; preds = %for.end, %if.then15, %if.then4, %if.then
  %8 = load i1, ptr %retval, align 1
  ret i1 %8
}