; Function Attrs: mustprogress uwtable
define internal fastcc noundef zeroext i1 @_ZN8facebook5velox9functions12_GLOBAL__N_116ArrayConstructor16shouldCopyRangesERKSt10shared_ptrIKNS0_4TypeEE(ptr nocapture noundef nonnull readonly align 8 dereferenceable(16) %type) unnamed_addr #0 align 2 {
entry:
  %0 = load ptr, ptr %type, align 8
  %vtable = load ptr, ptr %0, align 8
  %vfn = getelementptr inbounds i8, ptr %vtable, i64 32
  %1 = load ptr, ptr %vfn, align 8
  %call1 = tail call noundef zeroext i1 %1(ptr noundef nonnull align 8 dereferenceable(17) %0)
  br i1 %call1, label %return, label %if.end

if.end:                                           ; preds = %entry
  %2 = load ptr, ptr %type, align 8
  %kind_.i.i = getelementptr inbounds i8, ptr %2, i64 16
  %3 = load i8, ptr %kind_.i.i, align 8
  %cmp.i = icmp eq i8 %3, 32
  br i1 %cmp.i, label %if.end5, label %return

if.end5:                                          ; preds = %if.end
  %4 = tail call ptr @__dynamic_cast(ptr nonnull %2, ptr nonnull @_ZTIN8facebook5velox4TypeE, ptr nonnull @_ZTIN8facebook5velox7RowTypeE, i64 0) #19
  %5 = icmp eq ptr %4, null
  br i1 %5, label %dynamic_cast.bad_cast.i.i, label %_ZNK8facebook5velox4Type5asRowEv.exit

dynamic_cast.bad_cast.i.i:                        ; preds = %if.end5
  tail call void @__cxa_bad_cast() #23
  unreachable

_ZNK8facebook5velox4Type5asRowEv.exit:            ; preds = %if.end5
  %children_.i = getelementptr inbounds i8, ptr %4, i64 48
  %6 = load ptr, ptr %children_.i, align 8
  %_M_finish.i = getelementptr inbounds i8, ptr %4, i64 56
  %7 = load ptr, ptr %_M_finish.i, align 8
  %cmp.i4.not7 = icmp eq ptr %6, %7
  br i1 %cmp.i4.not7, label %return, label %for.body

for.body:                                         ; preds = %_ZNK8facebook5velox4Type5asRowEv.exit, %for.body
  %__begin3.sroa.0.08 = phi ptr [ %incdec.ptr.i, %for.body ], [ %6, %_ZNK8facebook5velox4Type5asRowEv.exit ]
  %call14 = tail call fastcc noundef zeroext i1 @_ZN8facebook5velox9functions12_GLOBAL__N_116ArrayConstructor16shouldCopyRangesERKSt10shared_ptrIKNS0_4TypeEE(ptr noundef nonnull align 8 dereferenceable(16) %__begin3.sroa.0.08)
  %incdec.ptr.i = getelementptr inbounds i8, ptr %__begin3.sroa.0.08, i64 16
  %cmp.i4.not = icmp eq ptr %incdec.ptr.i, %7
  %or.cond = select i1 %call14, i1 true, i1 %cmp.i4.not
  br i1 %or.cond, label %return, label %for.body

return:                                           ; preds = %for.body, %_ZNK8facebook5velox4Type5asRowEv.exit, %if.end, %entry
  %retval.0 = phi i1 [ false, %entry ], [ true, %if.end ], [ false, %_ZNK8facebook5velox4Type5asRowEv.exit ], [ %call14, %for.body ]
  ret i1 %retval.0
}